target datalayout = "e-m:e-p270:32:32-p271:32:32-p272:64:64-i64:64-i128:128-f80:128-n8:16:32:64-S128"
target triple = "x86_64-unknown-linux-gnu"

%struct.AddressSpace = type { %struct.rcu_head, ptr, ptr, ptr, i32, i32, ptr, %union.anon, %union.anon.1 }
%struct.rcu_head = type { ptr, ptr }
%union.anon = type { %struct.QTailQLink }
%struct.QTailQLink = type { ptr, ptr }
%union.anon.1 = type { %struct.QTailQLink }
%struct.MemTxAttrs = type { i32 }
%struct.timeval = type { i64, i64 }

@address_space_io = external global %struct.AddressSpace, align 8
@trace_events_enabled_count = external global i32, align 4
@_TRACE_CPU_OUT_DSTATE = external global i16, align 2
@message_with_timestamp = external global i8, align 1
@.str.2 = private unnamed_addr constant [45 x i8] c"%d@%zu.%06zu:cpu_out addr 0x%x(%c) value %u\0A\00", align 1
@.str.3 = private unnamed_addr constant [32 x i8] c"cpu_out addr 0x%x(%c) value %u\0A\00", align 1
@qemu_loglevel = external global i32, align 4

; Function Attrs: nounwind sspstrong uwtable
define internal zeroext i1 @qemu_loglevel_mask(i32 noundef %mask) #0 {
entry:
  %mask.addr = alloca i32, align 4
  store i32 %mask, ptr %mask.addr, align 4
  %0 = load i32, ptr @qemu_loglevel, align 4
  %1 = load i32, ptr %mask.addr, align 4
  %and = and i32 %0, %1
  %cmp = icmp ne i32 %and, 0
  ret i1 %cmp
}

; Function Attrs: nounwind sspstrong uwtable
define internal void @_nocheck__trace_cpu_out(i32 noundef %addr, i8 noundef signext %size, i32 noundef %val) #0 {
entry:
  %addr.addr = alloca i32, align 4
  %size.addr = alloca i8, align 1
  %val.addr = alloca i32, align 4
  %_now = alloca %struct.timeval, align 8
  store i32 %addr, ptr %addr.addr, align 4
  store i8 %size, ptr %size.addr, align 1
  store i32 %val, ptr %val.addr, align 4
  %0 = load i32, ptr @trace_events_enabled_count, align 4
  %tobool = icmp ne i32 %0, 0
  %lnot = xor i1 %tobool, true
  %lnot1 = xor i1 %lnot, true
  %lnot.ext = zext i1 %lnot1 to i32
  %conv = sext i32 %lnot.ext to i64
  %tobool2 = icmp ne i64 %conv, 0
  br i1 %tobool2, label %land.lhs.true, label %if.end13

land.lhs.true:                                    ; preds = %entry
  %1 = load i16, ptr @_TRACE_CPU_OUT_DSTATE, align 2
  %conv3 = zext i16 %1 to i32
  %tobool4 = icmp ne i32 %conv3, 0
  br i1 %tobool4, label %land.lhs.true5, label %if.end13

land.lhs.true5:                                   ; preds = %land.lhs.true
  %call = call zeroext i1 @qemu_loglevel_mask(i32 noundef 32768)
  br i1 %call, label %if.then, label %if.end13

if.then:                                          ; preds = %land.lhs.true5
  %2 = load i8, ptr @message_with_timestamp, align 1
  %tobool7 = trunc i8 %2 to i1
  br i1 %tobool7, label %if.then8, label %if.else

if.then8:                                         ; preds = %if.then
  %call9 = call i32 @gettimeofday(ptr noundef %_now, ptr noundef null) #10
  %call10 = call i32 @qemu_get_thread_id()
  %tv_sec = getelementptr inbounds %struct.timeval, ptr %_now, i32 0, i32 0
  %3 = load i64, ptr %tv_sec, align 8
  %tv_usec = getelementptr inbounds %struct.timeval, ptr %_now, i32 0, i32 1
  %4 = load i64, ptr %tv_usec, align 8
  %5 = load i32, ptr %addr.addr, align 4
  %6 = load i8, ptr %size.addr, align 1
  %conv11 = sext i8 %6 to i32
  %7 = load i32, ptr %val.addr, align 4
  call void (ptr, ...) @qemu_log(ptr noundef @.str.2, i32 noundef %call10, i64 noundef %3, i64 noundef %4, i32 noundef %5, i32 noundef %conv11, i32 noundef %7)
  br label %if.end

if.else:                                          ; preds = %if.then
  %8 = load i32, ptr %addr.addr, align 4
  %9 = load i8, ptr %size.addr, align 1
  %conv12 = sext i8 %9 to i32
  %10 = load i32, ptr %val.addr, align 4
  call void (ptr, ...) @qemu_log(ptr noundef @.str.3, i32 noundef %8, i32 noundef %conv12, i32 noundef %10)
  br label %if.end

if.end:                                           ; preds = %if.else, %if.then8
  br label %if.end13

if.end13:                                         ; preds = %if.end, %land.lhs.true5, %land.lhs.true, %entry
  ret void
}

; Function Attrs: nounwind sspstrong uwtable
define internal void @trace_cpu_out(i32 noundef %addr, i8 noundef signext %size, i32 noundef %val) #0 {
entry:
  %addr.addr = alloca i32, align 4
  %size.addr = alloca i8, align 1
  %val.addr = alloca i32, align 4
  store i32 %addr, ptr %addr.addr, align 4
  store i8 %size, ptr %size.addr, align 1
  store i32 %val, ptr %val.addr, align 4
  %0 = load i32, ptr %addr.addr, align 4
  %1 = load i8, ptr %size.addr, align 1
  %2 = load i32, ptr %val.addr, align 4
  call void @_nocheck__trace_cpu_out(i32 noundef %0, i8 noundef signext %1, i32 noundef %2)
  ret void
}

; Function Attrs: nounwind sspstrong uwtable
define dso_local void @cpu_outb(i32 noundef %addr, i8 noundef zeroext %val) #0 {
entry:
  %addr.addr = alloca i32, align 4
  %val.addr = alloca i8, align 1
  %.compoundliteral = alloca %struct.MemTxAttrs, align 4
  store i32 %addr, ptr %addr.addr, align 4
  store i8 %val, ptr %val.addr, align 1
  %0 = load i32, ptr %addr.addr, align 4
  %1 = load i8, ptr %val.addr, align 1
  %conv = zext i8 %1 to i32
  call void @trace_cpu_out(i32 noundef %0, i8 noundef signext 98, i32 noundef %conv)
  %2 = load i32, ptr %addr.addr, align 4
  %conv1 = zext i32 %2 to i64
  %bf.load = load i32, ptr %.compoundliteral, align 4
  %bf.clear = and i32 %bf.load, -2
  %bf.set = or i32 %bf.clear, 1
  store i32 %bf.set, ptr %.compoundliteral, align 4
  %bf.load2 = load i32, ptr %.compoundliteral, align 4
  %bf.clear3 = and i32 %bf.load2, -3
  %bf.set4 = or i32 %bf.clear3, 0
  store i32 %bf.set4, ptr %.compoundliteral, align 4
  %bf.load5 = load i32, ptr %.compoundliteral, align 4
  %bf.clear6 = and i32 %bf.load5, -13
  %bf.set7 = or i32 %bf.clear6, 0
  store i32 %bf.set7, ptr %.compoundliteral, align 4
  %bf.load8 = load i32, ptr %.compoundliteral, align 4
  %bf.clear9 = and i32 %bf.load8, -17
  %bf.set10 = or i32 %bf.clear9, 0
  store i32 %bf.set10, ptr %.compoundliteral, align 4
  %bf.load11 = load i32, ptr %.compoundliteral, align 4
  %bf.clear12 = and i32 %bf.load11, -33
  %bf.set13 = or i32 %bf.clear12, 0
  store i32 %bf.set13, ptr %.compoundliteral, align 4
  %bf.load14 = load i32, ptr %.compoundliteral, align 4
  %bf.clear15 = and i32 %bf.load14, -4194241
  %bf.set16 = or i32 %bf.clear15, 0
  store i32 %bf.set16, ptr %.compoundliteral, align 4
  %bf.load17 = load i32, ptr %.compoundliteral, align 4
  %bf.clear18 = and i32 %bf.load17, -4194305
  %bf.set19 = or i32 %bf.clear18, 0
  store i32 %bf.set19, ptr %.compoundliteral, align 4
  %bf.load20 = load i32, ptr %.compoundliteral, align 4
  %bf.clear21 = and i32 %bf.load20, -8388609
  %bf.set22 = or i32 %bf.clear21, 0
  store i32 %bf.set22, ptr %.compoundliteral, align 4
  %bf.load23 = load i32, ptr %.compoundliteral, align 4
  %bf.clear24 = and i32 %bf.load23, -16777217
  %bf.set25 = or i32 %bf.clear24, 0
  store i32 %bf.set25, ptr %.compoundliteral, align 4
  %bf.load26 = load i32, ptr %.compoundliteral, align 4
  %bf.clear27 = and i32 %bf.load26, -33554433
  %bf.set28 = or i32 %bf.clear27, 0
  store i32 %bf.set28, ptr %.compoundliteral, align 4
  %coerce.dive = getelementptr inbounds %struct.MemTxAttrs, ptr %.compoundliteral, i32 0, i32 0
  %3 = load i32, ptr %coerce.dive, align 4
  %call = call i32 @address_space_write(ptr noundef @address_space_io, i64 noundef %conv1, i32 %3, ptr noundef %val.addr, i64 noundef 1)
  ret void
}