; Function Attrs: nounwind sspstrong uwtable
define dso_local void @cpu_outb(i32 noundef %addr, i8 noundef zeroext %val) local_unnamed_addr #1 {
entry:
  %_now.i.i = alloca %struct.timeval, align 8
  %val.addr = alloca i8, align 1
  store i8 %val, ptr %val.addr, align 1
  %conv = zext i8 %val to i32
  call void @llvm.lifetime.start.p0(i64 16, ptr nonnull %_now.i.i)
  %0 = load i32, ptr @trace_events_enabled_count, align 4
  %tobool.i.i = icmp ne i32 %0, 0
  %1 = load i16, ptr @_TRACE_CPU_OUT_DSTATE, align 2
  %tobool4.i.i = icmp ne i16 %1, 0
  %or.cond.i.i = select i1 %tobool.i.i, i1 %tobool4.i.i, i1 false
  br i1 %or.cond.i.i, label %land.lhs.true5.i.i, label %trace_cpu_out.exit

land.lhs.true5.i.i:                               ; preds = %entry
  %2 = load i32, ptr @qemu_loglevel, align 4
  %and.i.i.i = and i32 %2, 32768
  %cmp.i.not.i.i = icmp eq i32 %and.i.i.i, 0
  br i1 %cmp.i.not.i.i, label %trace_cpu_out.exit, label %if.then.i.i

if.then.i.i:                                      ; preds = %land.lhs.true5.i.i
  %3 = load i8, ptr @message_with_timestamp, align 1
  %tobool7.i.i = trunc i8 %3 to i1
  br i1 %tobool7.i.i, label %if.then8.i.i, label %if.else.i.i

if.then8.i.i:                                     ; preds = %if.then.i.i
  %call9.i.i = call i32 @gettimeofday(ptr noundef nonnull %_now.i.i, ptr noundef null) #11
  %call10.i.i = tail call i32 @qemu_get_thread_id() #11
  %4 = load i64, ptr %_now.i.i, align 8
  %tv_usec.i.i = getelementptr inbounds nuw i8, ptr %_now.i.i, i64 8
  %5 = load i64, ptr %tv_usec.i.i, align 8
  tail call void (ptr, ...) @qemu_log(ptr noundef nonnull @.str.2, i32 noundef %call10.i.i, i64 noundef %4, i64 noundef %5, i32 noundef %addr, i32 noundef 98, i32 noundef %conv) #11
  br label %trace_cpu_out.exit

if.else.i.i:                                      ; preds = %if.then.i.i
  tail call void (ptr, ...) @qemu_log(ptr noundef nonnull @.str.3, i32 noundef %addr, i32 noundef 98, i32 noundef %conv) #11
  br label %trace_cpu_out.exit

trace_cpu_out.exit:                               ; preds = %entry, %land.lhs.true5.i.i, %if.then8.i.i, %if.else.i.i
  call void @llvm.lifetime.end.p0(i64 16, ptr nonnull %_now.i.i)
  %conv1 = zext i32 %addr to i64
  %call = call i32 @address_space_write(ptr noundef nonnull @address_space_io, i64 noundef %conv1, i32 1, ptr noundef nonnull %val.addr, i64 noundef 1) #11
  ret void
}